; Function Attrs: nofree norecurse nosync nounwind memory(read, argmem: readwrite, inaccessiblemem: none) uwtable
define internal void @yuv2nv20lX_BE_c(ptr noundef readonly captures(none) %0, i32 noundef %1, ptr noundef readonly captures(none) %2, ptr noundef writeonly captures(none) %3, i32 noundef %4, ptr readnone captures(none) %5, i32 %6) #3 {
  %8 = icmp sgt i32 %4, 0
  br i1 %8, label %.lr.ph36.i, label %yuv2p01xlX_c.exit

.lr.ph36.i:                                       ; preds = %7
  %9 = icmp sgt i32 %1, 0
  br i1 %9, label %.lr.ph.us42.preheader.i, label %.lr.ph36.split.split.i

.lr.ph.us42.preheader.i:                          ; preds = %.lr.ph36.i
  %wide.trip.count58.i = zext nneg i32 %4 to i64
  %wide.trip.count53.i = zext nneg i32 %1 to i64
  br label %.lr.ph.us42.i

.lr.ph.us42.i:                                    ; preds = %._crit_edge.us43.i, %.lr.ph.us42.preheader.i
  %indvars.iv55.i = phi i64 [ 0, %.lr.ph.us42.preheader.i ], [ %indvars.iv.next56.i, %._crit_edge.us43.i ]
  br label %10

10:                                               ; preds = %10, %.lr.ph.us42.i
  %indvars.iv50.i = phi i64 [ 0, %.lr.ph.us42.i ], [ %indvars.iv.next51.i, %10 ]
  %.033.us40.i = phi i32 [ 65536, %.lr.ph.us42.i ], [ %20, %10 ]
  %11 = getelementptr inbounds nuw ptr, ptr %2, i64 %indvars.iv50.i
  %12 = load ptr, ptr %11, align 8, !tbaa !43
  %13 = getelementptr inbounds nuw i16, ptr %12, i64 %indvars.iv55.i
  %14 = load i16, ptr %13, align 2, !tbaa !39
  %15 = sext i16 %14 to i32
  %16 = getelementptr inbounds nuw i16, ptr %0, i64 %indvars.iv50.i
  %17 = load i16, ptr %16, align 2, !tbaa !39
  %18 = sext i16 %17 to i32
  %19 = mul nsw i32 %18, %15
  %20 = add nsw i32 %19, %.033.us40.i
  %indvars.iv.next51.i = add nuw nsw i64 %indvars.iv50.i, 1
  %exitcond54.not.i = icmp eq i64 %indvars.iv.next51.i, %wide.trip.count53.i
  br i1 %exitcond54.not.i, label %._crit_edge.us43.i, label %10, !llvm.loop !44

._crit_edge.us43.i:                               ; preds = %10
  %21 = ashr i32 %20, 17
  %22 = tail call i32 @llvm.smax.i32(i32 %21, i32 0)
  %23 = tail call i32 @llvm.umin.i32(i32 %22, i32 1023)
  %24 = trunc nuw nsw i32 %23 to i16
  %25 = tail call i16 @llvm.bswap.i16(i16 %24)
  %26 = getelementptr inbounds nuw i16, ptr %3, i64 %indvars.iv55.i
  store i16 %25, ptr %26, align 1, !tbaa !41
  %indvars.iv.next56.i = add nuw nsw i64 %indvars.iv55.i, 1
  %exitcond59.not.i = icmp eq i64 %indvars.iv.next56.i, %wide.trip.count58.i
  br i1 %exitcond59.not.i, label %yuv2p01xlX_c.exit, label %.lr.ph.us42.i, !llvm.loop !45

.lr.ph36.split.split.i:                           ; preds = %.lr.ph36.i
  %27 = shl nuw i32 %4, 1
  %28 = zext i32 %27 to i64
  tail call void @llvm.memset.p0.i64(ptr align 1 %3, i8 0, i64 %28, i1 false), !tbaa !41
  br label %yuv2p01xlX_c.exit

yuv2p01xlX_c.exit:                                ; preds = %._crit_edge.us43.i, %.lr.ph36.split.split.i, %7
  ret void
}